target datalayout = "e-m:e-p270:32:32-p271:32:32-p272:64:64-i64:64-i128:128-f80:128-n8:16:32:64-S128"
target triple = "x86_64-pc-linux-gnu"

@stderr = external global ptr, align 8
@zend_mm_use_huge_pages = internal global i8 0, align 1
@.str.8 = private unnamed_addr constant [11 x i8] c"zend_alloc\00", align 1
@.str.9 = private unnamed_addr constant [25 x i8] c"\0Ammap() failed: [%d] %s\0A\00", align 1

; Function Attrs: nounwind uwtable
define internal ptr @zend_mm_mmap(i64 noundef %0) #0 {
  %2 = alloca ptr, align 8
  %3 = alloca i64, align 8
  %4 = alloca ptr, align 8
  %5 = alloca ptr, align 8
  %6 = alloca i64, align 8
  %7 = alloca ptr, align 8
  %8 = alloca ptr, align 8
  %9 = alloca i64, align 8
  %10 = alloca ptr, align 8
  %11 = alloca i32, align 4
  %12 = alloca i32, align 4
  store i64 %0, ptr %9, align 8
  %13 = load i8, ptr @zend_mm_use_huge_pages, align 1
  %14 = trunc i8 %13 to i1
  br i1 %14, label %15, label %38

15:                                               ; preds = %1
  %16 = load i64, ptr %9, align 8
  %17 = icmp eq i64 %16, 2097152
  br i1 %17, label %18, label %38

18:                                               ; preds = %15
  store i32 -1, ptr %11, align 4
  store i32 34, ptr %12, align 4
  %19 = load i32, ptr %12, align 4
  %20 = or i32 %19, 262144
  store i32 %20, ptr %12, align 4
  %21 = load i64, ptr %9, align 8
  %22 = load i32, ptr %12, align 4
  %23 = load i32, ptr %11, align 4
  %24 = call ptr @mmap(ptr noundef null, i64 noundef %21, i32 noundef 3, i32 noundef %22, i32 noundef %23, i64 noundef 0) #20
  store ptr %24, ptr %10, align 8
  %25 = load ptr, ptr %10, align 8
  %26 = icmp ne ptr %25, inttoptr (i64 -1 to ptr)
  br i1 %26, label %27, label %37

27:                                               ; preds = %18
  %28 = load ptr, ptr %10, align 8
  %29 = load i64, ptr %9, align 8
  store ptr %28, ptr %2, align 8
  store i64 %29, ptr %3, align 8
  store ptr @.str.8, ptr %4, align 8
  %30 = load ptr, ptr %2, align 8
  %31 = ptrtoint ptr %30 to i64
  %32 = load i64, ptr %3, align 8
  %33 = load ptr, ptr %4, align 8
  %34 = ptrtoint ptr %33 to i64
  %35 = call i32 (i32, ...) @prctl(i32 noundef 1398164801, i32 noundef 0, i64 noundef %31, i64 noundef %32, i64 noundef %34) #20
  %36 = load ptr, ptr %10, align 8
  store ptr %36, ptr %8, align 8
  br label %61

37:                                               ; preds = %18
  br label %38

38:                                               ; preds = %37, %15, %1
  %39 = load i64, ptr %9, align 8
  %40 = call ptr @mmap(ptr noundef null, i64 noundef %39, i32 noundef 3, i32 noundef 34, i32 noundef -1, i64 noundef 0) #20
  store ptr %40, ptr %10, align 8
  %41 = load ptr, ptr %10, align 8
  %42 = icmp eq ptr %41, inttoptr (i64 -1 to ptr)
  br i1 %42, label %43, label %51

43:                                               ; preds = %38
  %44 = load ptr, ptr @stderr, align 8
  %45 = call ptr @__errno_location() #28
  %46 = load i32, ptr %45, align 4
  %47 = call ptr @__errno_location() #28
  %48 = load i32, ptr %47, align 4
  %49 = call ptr @strerror(i32 noundef %48) #20
  %50 = call i32 (ptr, ptr, ...) @fprintf(ptr noundef %44, ptr noundef @.str.9, i32 noundef %46, ptr noundef %49) #20
  store ptr null, ptr %8, align 8
  br label %61

51:                                               ; preds = %38
  %52 = load ptr, ptr %10, align 8
  %53 = load i64, ptr %9, align 8
  store ptr %52, ptr %5, align 8
  store i64 %53, ptr %6, align 8
  store ptr @.str.8, ptr %7, align 8
  %54 = load ptr, ptr %5, align 8
  %55 = ptrtoint ptr %54 to i64
  %56 = load i64, ptr %6, align 8
  %57 = load ptr, ptr %7, align 8
  %58 = ptrtoint ptr %57 to i64
  %59 = call i32 (i32, ...) @prctl(i32 noundef 1398164801, i32 noundef 0, i64 noundef %55, i64 noundef %56, i64 noundef %58) #20
  %60 = load ptr, ptr %10, align 8
  store ptr %60, ptr %8, align 8
  br label %61

61:                                               ; preds = %51, %43, %27
  %62 = load ptr, ptr %8, align 8
  ret ptr %62
}