; Function Attrs: nounwind uwtable
define internal fastcc ptr @zend_mm_mmap(i64 noundef %0) unnamed_addr #0 {
  %.b24 = load i1, ptr @zend_mm_use_huge_pages, align 1
  %2 = icmp eq i64 %0, 2097152
  %or.cond = and i1 %2, %.b24
  br i1 %or.cond, label %3, label %8

3:                                                ; preds = %1
  %4 = tail call ptr @mmap(ptr noundef null, i64 noundef 2097152, i32 noundef 3, i32 noundef 262178, i32 noundef -1, i64 noundef 0) #35
  %.not = icmp eq ptr %4, inttoptr (i64 -1 to ptr)
  br i1 %.not, label %8, label %5

5:                                                ; preds = %3
  %6 = ptrtoint ptr %4 to i64
  %7 = tail call i32 (i32, ...) @prctl(i32 noundef 1398164801, i32 noundef 0, i64 noundef %6, i64 noundef 2097152, i64 noundef ptrtoint (ptr @.str.8 to i64)) #35
  br label %20

8:                                                ; preds = %3, %1
  %9 = tail call ptr @mmap(ptr noundef null, i64 noundef %0, i32 noundef 3, i32 noundef 34, i32 noundef -1, i64 noundef 0) #35
  %10 = icmp eq ptr %9, inttoptr (i64 -1 to ptr)
  br i1 %10, label %11, label %17

11:                                               ; preds = %8
  %12 = load ptr, ptr @stderr, align 8
  %13 = tail call ptr @__errno_location() #36
  %14 = load i32, ptr %13, align 4
  %15 = tail call ptr @strerror(i32 noundef %14) #35
  %16 = tail call i32 (ptr, ptr, ...) @fprintf(ptr noundef %12, ptr noundef nonnull @.str.9, i32 noundef %14, ptr noundef %15) #37
  br label %20

17:                                               ; preds = %8
  %18 = ptrtoint ptr %9 to i64
  %19 = tail call i32 (i32, ...) @prctl(i32 noundef 1398164801, i32 noundef 0, i64 noundef %18, i64 noundef %0, i64 noundef ptrtoint (ptr @.str.8 to i64)) #35
  br label %20

20:                                               ; preds = %17, %11, %5
  %.0 = phi ptr [ %4, %5 ], [ null, %11 ], [ %9, %17 ]
  ret ptr %.0
}